; Function Attrs: nounwind uwtable
define i32 @PaUnixThread_PrepareNotify(ptr noundef %0) local_unnamed_addr #6 {
  %2 = getelementptr inbounds nuw i8, ptr %0, i64 8
  %3 = load i32, ptr %2, align 8, !tbaa !21
  %4 = icmp eq i32 %3, 0
  br i1 %4, label %5, label %6, !prof !31

5:                                                ; preds = %1
  tail call void (ptr, ...) @PaUtil_DebugPrint(ptr noundef nonnull @.str.9) #16
  br label %19

6:                                                ; preds = %1
  %7 = getelementptr inbounds nuw i8, ptr %0, i64 24
  %8 = tail call i32 @pthread_mutex_lock(ptr noundef nonnull %7) #16
  store i32 %8, ptr @paUtilErr_, align 4, !tbaa !11
  %.not.i = icmp eq i32 %8, 0
  br i1 %.not.i, label %17, label %9, !prof !22

9:                                                ; preds = %6
  %10 = tail call i64 @pthread_self() #17
  %11 = load i64, ptr @paUnixMainThread, align 8, !tbaa !17
  %.not3.i = icmp eq i64 %10, %11
  br i1 %.not3.i, label %12, label %15

12:                                               ; preds = %9
  %13 = sext i32 %8 to i64
  %14 = tail call ptr @strerror(i32 noundef %8) #16
  tail call void @PaUtil_SetLastHostErrorInfo(i32 noundef 8, i64 noundef %13, ptr noundef %14) #16
  br label %15

15:                                               ; preds = %9, %12
  tail call void (ptr, ...) @PaUtil_DebugPrint(ptr noundef nonnull @.str.14) #16
  store i32 -9999, ptr @paUtilErr_, align 4, !tbaa !11
  tail call void (ptr, ...) @PaUtil_DebugPrint(ptr noundef nonnull @.str.10) #16
  %16 = load i32, ptr @paUtilErr_, align 4, !tbaa !11
  br label %19

17:                                               ; preds = %6
  store i32 0, ptr @paUtilErr_, align 4, !tbaa !11
  %18 = getelementptr inbounds nuw i8, ptr %0, i64 16
  store i32 1, ptr %18, align 8, !tbaa !32
  br label %19

19:                                               ; preds = %17, %15, %5
  %.0 = phi i32 [ -9986, %5 ], [ %16, %15 ], [ 0, %17 ]
  ret i32 %.0
}